; Function Attrs: mustprogress nofree norecurse nosync nounwind willreturn memory(read, argmem: write, inaccessiblemem: none) uwtable
define hidden void @_glfwGetRequiredInstanceExtensionsWayland(ptr noundef writeonly captures(none) %0) local_unnamed_addr #8 {
  %2 = load i32, ptr getelementptr inbounds nuw (i8, ptr @_glfw, i64 133840), align 8, !tbaa !348
  %3 = icmp ne i32 %2, 0
  %4 = load i32, ptr getelementptr inbounds nuw (i8, ptr @_glfw, i64 133864), align 8
  %5 = icmp ne i32 %4, 0
  %or.cond = select i1 %3, i1 %5, i1 false
  br i1 %or.cond, label %6, label %8

6:                                                ; preds = %1
  store ptr @.str.34, ptr %0, align 8, !tbaa !186
  %7 = getelementptr inbounds nuw i8, ptr %0, i64 8
  store ptr @.str.35, ptr %7, align 8, !tbaa !186
  br label %8

8:                                                ; preds = %1, %6
  ret void
}